target datalayout = "e-m:e-p270:32:32-p271:32:32-p272:64:64-i64:64-i128:128-f80:128-n8:16:32:64-S128"
target triple = "x86_64-pc-linux-gnu"

@.str = private unnamed_addr constant [2 x i8] c"\0A\00", align 1
@.str.1 = private unnamed_addr constant [85 x i8] c"                       Clam AntiVirus: Malware and False Positive Reporting Tool %s\0A\00", align 1
@.str.2 = private unnamed_addr constant [74 x i8] c"           By The ClamAV Team: https://www.clamav.net/about.html#credits\0A\00", align 1
@.str.3 = private unnamed_addr constant [41 x i8] c"           (C) 2024 Cisco Systems, Inc.\0A\00", align 1
@.str.4 = private unnamed_addr constant [19 x i8] c"    %s -hHinpVvd?\0A\00", align 1
@.str.5 = private unnamed_addr constant [46 x i8] c"    -h or -?                  Show this help\0A\00", align 1
@.str.6 = private unnamed_addr constant [44 x i8] c"    -v                        Show version\0A\00", align 1
@.str.7 = private unnamed_addr constant [61 x i8] c"    -e [EMAIL]                Your email address (required)\0A\00", align 1
@.str.8 = private unnamed_addr constant [60 x i8] c"    -n [FILE/-]               Submit a false negative (FN)\0A\00", align 1
@.str.9 = private unnamed_addr constant [81 x i8] c"    -N [NAME]                 Your name contained in quotation marks (required)\0A\00", align 1
@.str.10 = private unnamed_addr constant [60 x i8] c"    -p [FILE/-]               Submit a false positive (FP)\0A\00", align 1
@.str.11 = private unnamed_addr constant [70 x i8] c"    -V [VIRUS]                Detected virus name (required with -p)\0A\00", align 1
@.str.12 = private unnamed_addr constant [51 x i8] c"    -d                        Enable debug output\0A\00", align 1
@.str.13 = private unnamed_addr constant [95 x i8] c"You must specify -n or -p. Both are mutually exclusive. Pass in - as the filename for stdin.\0A\0A\00", align 1

; Function Attrs: nounwind uwtable
define dso_local void @usage(ptr noundef %0) #0 {
  %2 = alloca ptr, align 8
  store ptr %0, ptr %2, align 8
  %3 = call i32 (ptr, ...) @printf(ptr noundef @.str)
  %4 = call ptr @get_version()
  %5 = call i32 (ptr, ...) @printf(ptr noundef @.str.1, ptr noundef %4)
  %6 = call i32 (ptr, ...) @printf(ptr noundef @.str.2)
  %7 = call i32 (ptr, ...) @printf(ptr noundef @.str.3)
  %8 = call i32 (ptr, ...) @printf(ptr noundef @.str)
  %9 = load ptr, ptr %2, align 8
  %10 = call i32 (ptr, ...) @printf(ptr noundef @.str.4, ptr noundef %9)
  %11 = call i32 (ptr, ...) @printf(ptr noundef @.str)
  %12 = call i32 (ptr, ...) @printf(ptr noundef @.str.5)
  %13 = call i32 (ptr, ...) @printf(ptr noundef @.str.6)
  %14 = call i32 (ptr, ...) @printf(ptr noundef @.str.7)
  %15 = call i32 (ptr, ...) @printf(ptr noundef @.str.8)
  %16 = call i32 (ptr, ...) @printf(ptr noundef @.str.9)
  %17 = call i32 (ptr, ...) @printf(ptr noundef @.str.10)
  %18 = call i32 (ptr, ...) @printf(ptr noundef @.str.11)
  %19 = call i32 (ptr, ...) @printf(ptr noundef @.str.12)
  %20 = call i32 (ptr, ...) @printf(ptr noundef @.str)
  %21 = call i32 (ptr, ...) @printf(ptr noundef @.str.13)
  call void @exit(i32 noundef 0) #9
  unreachable
}