; Function Attrs: noreturn nounwind uwtable
define dso_local void @usage(ptr noundef %0) local_unnamed_addr #0 {
  %putchar = tail call i32 @putchar(i32 10)
  %2 = tail call ptr @get_version() #12
  %3 = tail call i32 (ptr, ...) @printf(ptr noundef nonnull dereferenceable(1) @.str.1, ptr noundef %2)
  %puts = tail call i32 @puts(ptr nonnull dereferenceable(1) @str)
  %puts1 = tail call i32 @puts(ptr nonnull dereferenceable(1) @str.1)
  %putchar2 = tail call i32 @putchar(i32 10)
  %4 = tail call i32 (ptr, ...) @printf(ptr noundef nonnull dereferenceable(1) @.str.4, ptr noundef %0)
  %putchar3 = tail call i32 @putchar(i32 10)
  %puts4 = tail call i32 @puts(ptr nonnull dereferenceable(1) @str.2)
  %puts5 = tail call i32 @puts(ptr nonnull dereferenceable(1) @str.3)
  %puts6 = tail call i32 @puts(ptr nonnull dereferenceable(1) @str.4)
  %puts7 = tail call i32 @puts(ptr nonnull dereferenceable(1) @str.5)
  %puts8 = tail call i32 @puts(ptr nonnull dereferenceable(1) @str.6)
  %puts9 = tail call i32 @puts(ptr nonnull dereferenceable(1) @str.7)
  %puts10 = tail call i32 @puts(ptr nonnull dereferenceable(1) @str.8)
  %puts11 = tail call i32 @puts(ptr nonnull dereferenceable(1) @str.9)
  %putchar12 = tail call i32 @putchar(i32 10)
  %puts13 = tail call i32 @puts(ptr nonnull dereferenceable(1) @str.10)
  tail call void @exit(i32 noundef 0) #13
  unreachable
}